target datalayout = "e-m:e-p270:32:32-p271:32:32-p272:64:64-i64:64-i128:128-f80:128-n8:16:32:64-S128"
target triple = "x86_64-pc-linux-gnu"

%class.Node = type <{ ptr, ptr, ptr, i32, i32, i32, i32, i32, i32, i32, [4 x i8] }>
%class.VPointer = type { ptr, ptr, ptr, ptr, i32, i32, ptr, ptr, i8, i32 }

; Function Attrs: mustprogress nounwind uwtable
define linkonce_odr hidden noundef ptr @_ZNK4Node2inEj(ptr noundef nonnull align 8 dereferenceable(52) %0, i32 noundef %1) #1 comdat align 2 {
  %3 = alloca ptr, align 8
  %4 = alloca i32, align 4
  store ptr %0, ptr %3, align 8
  store i32 %1, ptr %4, align 4
  %5 = load ptr, ptr %3, align 8
  %6 = getelementptr inbounds %class.Node, ptr %5, i32 0, i32 1
  %7 = load ptr, ptr %6, align 8
  %8 = load i32, ptr %4, align 4
  %9 = zext i32 %8 to i64
  %10 = getelementptr inbounds ptr, ptr %7, i64 %9
  %11 = load ptr, ptr %10, align 8
  ret ptr %11
}

; Function Attrs: mustprogress nounwind uwtable
define hidden noundef zeroext i1 @_ZN8VPointer21scaled_iv_plus_offsetEP4Node(ptr noundef nonnull align 8 dereferenceable(64) %0, ptr noundef %1) #1 align 2 {
  %3 = alloca i1, align 1
  %4 = alloca ptr, align 8
  %5 = alloca ptr, align 8
  %6 = alloca i32, align 4
  store ptr %0, ptr %4, align 8
  store ptr %1, ptr %5, align 8
  %7 = load ptr, ptr %4, align 8
  %8 = load ptr, ptr %5, align 8
  %9 = call noundef zeroext i1 @_ZN8VPointer9scaled_ivEP4Node(ptr noundef nonnull align 8 dereferenceable(64) %7, ptr noundef %8)
  br i1 %9, label %10, label %11

10:                                               ; preds = %2
  store i1 true, ptr %3, align 1
  br label %72

11:                                               ; preds = %2
  %12 = load ptr, ptr %5, align 8
  %13 = call noundef zeroext i1 @_ZN8VPointer13offset_plus_kEP4Nodeb(ptr noundef nonnull align 8 dereferenceable(64) %7, ptr noundef %12, i1 noundef zeroext false)
  br i1 %13, label %14, label %15

14:                                               ; preds = %11
  store i1 true, ptr %3, align 1
  br label %72

15:                                               ; preds = %11
  %16 = load ptr, ptr %5, align 8
  %17 = load ptr, ptr %16, align 8
  %18 = getelementptr inbounds ptr, ptr %17, i64 0
  %19 = load ptr, ptr %18, align 8
  %20 = call noundef i32 %19(ptr noundef nonnull align 8 dereferenceable(52) %16)
  store i32 %20, ptr %6, align 4
  %21 = load i32, ptr %6, align 4
  %22 = icmp eq i32 %21, 23
  br i1 %22, label %23, label %42

23:                                               ; preds = %15
  %24 = load ptr, ptr %5, align 8
  %25 = call noundef ptr @_ZNK4Node2inEj(ptr noundef nonnull align 8 dereferenceable(52) %24, i32 noundef 2)
  %26 = call noundef zeroext i1 @_ZN8VPointer13offset_plus_kEP4Nodeb(ptr noundef nonnull align 8 dereferenceable(64) %7, ptr noundef %25, i1 noundef zeroext false)
  br i1 %26, label %27, label %32

27:                                               ; preds = %23
  %28 = load ptr, ptr %5, align 8
  %29 = call noundef ptr @_ZNK4Node2inEj(ptr noundef nonnull align 8 dereferenceable(52) %28, i32 noundef 1)
  %30 = call noundef zeroext i1 @_ZN8VPointer21scaled_iv_plus_offsetEP4Node(ptr noundef nonnull align 8 dereferenceable(64) %7, ptr noundef %29)
  br i1 %30, label %31, label %32

31:                                               ; preds = %27
  store i1 true, ptr %3, align 1
  br label %72

32:                                               ; preds = %27, %23
  %33 = load ptr, ptr %5, align 8
  %34 = call noundef ptr @_ZNK4Node2inEj(ptr noundef nonnull align 8 dereferenceable(52) %33, i32 noundef 1)
  %35 = call noundef zeroext i1 @_ZN8VPointer13offset_plus_kEP4Nodeb(ptr noundef nonnull align 8 dereferenceable(64) %7, ptr noundef %34, i1 noundef zeroext false)
  br i1 %35, label %36, label %41

36:                                               ; preds = %32
  %37 = load ptr, ptr %5, align 8
  %38 = call noundef ptr @_ZNK4Node2inEj(ptr noundef nonnull align 8 dereferenceable(52) %37, i32 noundef 2)
  %39 = call noundef zeroext i1 @_ZN8VPointer21scaled_iv_plus_offsetEP4Node(ptr noundef nonnull align 8 dereferenceable(64) %7, ptr noundef %38)
  br i1 %39, label %40, label %41

40:                                               ; preds = %36
  store i1 true, ptr %3, align 1
  br label %72

41:                                               ; preds = %36, %32
  br label %71

42:                                               ; preds = %15
  %43 = load i32, ptr %6, align 4
  %44 = icmp eq i32 %43, 342
  br i1 %44, label %48, label %45

45:                                               ; preds = %42
  %46 = load i32, ptr %6, align 4
  %47 = icmp eq i32 %46, 343
  br i1 %47, label %48, label %70

48:                                               ; preds = %45, %42
  %49 = load ptr, ptr %5, align 8
  %50 = call noundef ptr @_ZNK4Node2inEj(ptr noundef nonnull align 8 dereferenceable(52) %49, i32 noundef 2)
  %51 = call noundef zeroext i1 @_ZN8VPointer13offset_plus_kEP4Nodeb(ptr noundef nonnull align 8 dereferenceable(64) %7, ptr noundef %50, i1 noundef zeroext true)
  br i1 %51, label %52, label %57

52:                                               ; preds = %48
  %53 = load ptr, ptr %5, align 8
  %54 = call noundef ptr @_ZNK4Node2inEj(ptr noundef nonnull align 8 dereferenceable(52) %53, i32 noundef 1)
  %55 = call noundef zeroext i1 @_ZN8VPointer21scaled_iv_plus_offsetEP4Node(ptr noundef nonnull align 8 dereferenceable(64) %7, ptr noundef %54)
  br i1 %55, label %56, label %57

56:                                               ; preds = %52
  store i1 true, ptr %3, align 1
  br label %72

57:                                               ; preds = %52, %48
  %58 = load ptr, ptr %5, align 8
  %59 = call noundef ptr @_ZNK4Node2inEj(ptr noundef nonnull align 8 dereferenceable(52) %58, i32 noundef 1)
  %60 = call noundef zeroext i1 @_ZN8VPointer13offset_plus_kEP4Nodeb(ptr noundef nonnull align 8 dereferenceable(64) %7, ptr noundef %59, i1 noundef zeroext false)
  br i1 %60, label %61, label %69

61:                                               ; preds = %57
  %62 = load ptr, ptr %5, align 8
  %63 = call noundef ptr @_ZNK4Node2inEj(ptr noundef nonnull align 8 dereferenceable(52) %62, i32 noundef 2)
  %64 = call noundef zeroext i1 @_ZN8VPointer21scaled_iv_plus_offsetEP4Node(ptr noundef nonnull align 8 dereferenceable(64) %7, ptr noundef %63)
  br i1 %64, label %65, label %69

65:                                               ; preds = %61
  %66 = getelementptr inbounds %class.VPointer, ptr %7, i32 0, i32 4
  %67 = load i32, ptr %66, align 8
  %68 = mul nsw i32 %67, -1
  store i32 %68, ptr %66, align 8
  store i1 true, ptr %3, align 1
  br label %72

69:                                               ; preds = %61, %57
  br label %70

70:                                               ; preds = %69, %45
  br label %71

71:                                               ; preds = %70, %41
  store i1 false, ptr %3, align 1
  br label %72

72:                                               ; preds = %71, %65, %56, %40, %31, %14, %10
  %73 = load i1, ptr %3, align 1
  ret i1 %73
}