; Function Attrs: mustprogress nounwind uwtable
define hidden noundef zeroext i1 @_ZN8VPointer21scaled_iv_plus_offsetEP4Node(ptr nocapture noundef nonnull align 8 dereferenceable(64) %0, ptr noundef %1) local_unnamed_addr #0 align 2 {
  %3 = tail call noundef zeroext i1 @_ZN8VPointer9scaled_ivEP4Node(ptr noundef nonnull align 8 dereferenceable(64) %0, ptr noundef %1)
  br i1 %3, label %60, label %4

4:                                                ; preds = %2
  %5 = tail call noundef zeroext i1 @_ZN8VPointer13offset_plus_kEP4Nodeb(ptr noundef nonnull align 8 dereferenceable(64) %0, ptr noundef %1, i1 noundef zeroext false)
  br i1 %5, label %60, label %6

6:                                                ; preds = %4
  %7 = load ptr, ptr %1, align 8
  %8 = load ptr, ptr %7, align 8
  %9 = tail call noundef i32 %8(ptr noundef nonnull align 8 dereferenceable(52) %1) #13
  %10 = icmp eq i32 %9, 23
  br i1 %10, label %11, label %32

11:                                               ; preds = %6
  %12 = getelementptr inbounds i8, ptr %1, i64 8
  %13 = load ptr, ptr %12, align 8
  %14 = getelementptr inbounds i8, ptr %13, i64 16
  %15 = load ptr, ptr %14, align 8
  %16 = tail call noundef zeroext i1 @_ZN8VPointer13offset_plus_kEP4Nodeb(ptr noundef nonnull align 8 dereferenceable(64) %0, ptr noundef %15, i1 noundef zeroext false)
  br i1 %16, label %17, label %22

17:                                               ; preds = %11
  %18 = load ptr, ptr %12, align 8
  %19 = getelementptr inbounds i8, ptr %18, i64 8
  %20 = load ptr, ptr %19, align 8
  %21 = tail call noundef zeroext i1 @_ZN8VPointer21scaled_iv_plus_offsetEP4Node(ptr noundef nonnull align 8 dereferenceable(64) %0, ptr noundef %20)
  br i1 %21, label %60, label %22

22:                                               ; preds = %17, %11
  %23 = load ptr, ptr %12, align 8
  %24 = getelementptr inbounds i8, ptr %23, i64 8
  %25 = load ptr, ptr %24, align 8
  %26 = tail call noundef zeroext i1 @_ZN8VPointer13offset_plus_kEP4Nodeb(ptr noundef nonnull align 8 dereferenceable(64) %0, ptr noundef %25, i1 noundef zeroext false)
  br i1 %26, label %27, label %59

27:                                               ; preds = %22
  %28 = load ptr, ptr %12, align 8
  %29 = getelementptr inbounds i8, ptr %28, i64 16
  %30 = load ptr, ptr %29, align 8
  %31 = tail call noundef zeroext i1 @_ZN8VPointer21scaled_iv_plus_offsetEP4Node(ptr noundef nonnull align 8 dereferenceable(64) %0, ptr noundef %30)
  br i1 %31, label %60, label %59

32:                                               ; preds = %6
  %33 = and i32 %9, -2
  %or.cond = icmp eq i32 %33, 342
  br i1 %or.cond, label %34, label %59

34:                                               ; preds = %32
  %35 = getelementptr inbounds i8, ptr %1, i64 8
  %36 = load ptr, ptr %35, align 8
  %37 = getelementptr inbounds i8, ptr %36, i64 16
  %38 = load ptr, ptr %37, align 8
  %39 = tail call noundef zeroext i1 @_ZN8VPointer13offset_plus_kEP4Nodeb(ptr noundef nonnull align 8 dereferenceable(64) %0, ptr noundef %38, i1 noundef zeroext true)
  br i1 %39, label %40, label %45

40:                                               ; preds = %34
  %41 = load ptr, ptr %35, align 8
  %42 = getelementptr inbounds i8, ptr %41, i64 8
  %43 = load ptr, ptr %42, align 8
  %44 = tail call noundef zeroext i1 @_ZN8VPointer21scaled_iv_plus_offsetEP4Node(ptr noundef nonnull align 8 dereferenceable(64) %0, ptr noundef %43)
  br i1 %44, label %60, label %45

45:                                               ; preds = %40, %34
  %46 = load ptr, ptr %35, align 8
  %47 = getelementptr inbounds i8, ptr %46, i64 8
  %48 = load ptr, ptr %47, align 8
  %49 = tail call noundef zeroext i1 @_ZN8VPointer13offset_plus_kEP4Nodeb(ptr noundef nonnull align 8 dereferenceable(64) %0, ptr noundef %48, i1 noundef zeroext false)
  br i1 %49, label %50, label %59

50:                                               ; preds = %45
  %51 = load ptr, ptr %35, align 8
  %52 = getelementptr inbounds i8, ptr %51, i64 16
  %53 = load ptr, ptr %52, align 8
  %54 = tail call noundef zeroext i1 @_ZN8VPointer21scaled_iv_plus_offsetEP4Node(ptr noundef nonnull align 8 dereferenceable(64) %0, ptr noundef %53)
  br i1 %54, label %55, label %59

55:                                               ; preds = %50
  %56 = getelementptr inbounds i8, ptr %0, i64 32
  %57 = load i32, ptr %56, align 8
  %58 = sub nsw i32 0, %57
  store i32 %58, ptr %56, align 8
  br label %60

59:                                               ; preds = %32, %50, %45, %22, %27
  br label %60

60:                                               ; preds = %40, %27, %17, %4, %2, %59, %55
  %.0 = phi i1 [ false, %59 ], [ true, %55 ], [ true, %2 ], [ true, %4 ], [ true, %17 ], [ true, %27 ], [ true, %40 ]
  ret i1 %.0
}